target datalayout = "e-m:e-p270:32:32-p271:32:32-p272:64:64-i64:64-i128:128-f80:128-n8:16:32:64-S128"
target triple = "x86_64-unknown-linux-gnu"

%"class.icu_75::StandardPluralRanges" = type { %"class.icu_75::MaybeStackArray.0", i32, [4 x i8] }
%"class.icu_75::MaybeStackArray.0" = type <{ ptr, i32, i8, [3 x i8], [3 x %"struct.icu_75::StandardPluralRanges::StandardPluralRangeTriple"], [4 x i8] }>
%"struct.icu_75::StandardPluralRanges::StandardPluralRangeTriple" = type { i32, i32, i32 }

; Function Attrs: mustprogress uwtable
define linkonce_odr void @_ZN6icu_7515MaybeStackArrayINS_20StandardPluralRanges25StandardPluralRangeTripleELi3EE12releaseArrayEv(ptr noundef nonnull align 8 dereferenceable(52) %this) #1 comdat align 2 {
entry:
  %this.addr = alloca ptr, align 8
  store ptr %this, ptr %this.addr, align 8
  %this1 = load ptr, ptr %this.addr, align 8
  %needToRelease = getelementptr inbounds %"class.icu_75::MaybeStackArray.0", ptr %this1, i32 0, i32 2
  %0 = load i8, ptr %needToRelease, align 4
  %tobool = icmp ne i8 %0, 0
  br i1 %tobool, label %if.then, label %if.end

if.then:                                          ; preds = %entry
  %ptr = getelementptr inbounds %"class.icu_75::MaybeStackArray.0", ptr %this1, i32 0, i32 0
  %1 = load ptr, ptr %ptr, align 8
  call void @uprv_free_75(ptr noundef %1)
  br label %if.end

if.end:                                           ; preds = %if.then, %entry
  ret void
}

; Function Attrs: mustprogress uwtable
define linkonce_odr noundef ptr @_ZN6icu_7515MaybeStackArrayINS_20StandardPluralRanges25StandardPluralRangeTripleELi3EE6resizeEii(ptr noundef nonnull align 8 dereferenceable(52) %this, i32 noundef %newCapacity, i32 noundef %length) #1 comdat align 2 {
entry:
  %retval = alloca ptr, align 8
  %this.addr = alloca ptr, align 8
  %newCapacity.addr = alloca i32, align 4
  %length.addr = alloca i32, align 4
  %p = alloca ptr, align 8
  store ptr %this, ptr %this.addr, align 8
  store i32 %newCapacity, ptr %newCapacity.addr, align 4
  store i32 %length, ptr %length.addr, align 4
  %this1 = load ptr, ptr %this.addr, align 8
  %0 = load i32, ptr %newCapacity.addr, align 4
  %cmp = icmp sgt i32 %0, 0
  br i1 %cmp, label %if.then, label %if.else

if.then:                                          ; preds = %entry
  %1 = load i32, ptr %newCapacity.addr, align 4
  %conv = sext i32 %1 to i64
  %mul = mul i64 %conv, 12
  %call = call noalias ptr @uprv_malloc_75(i64 noundef %mul) #8
  store ptr %call, ptr %p, align 8
  %2 = load ptr, ptr %p, align 8
  %cmp2 = icmp ne ptr %2, null
  br i1 %cmp2, label %if.then3, label %if.end17

if.then3:                                         ; preds = %if.then
  %3 = load i32, ptr %length.addr, align 4
  %cmp4 = icmp sgt i32 %3, 0
  br i1 %cmp4, label %if.then5, label %if.end14

if.then5:                                         ; preds = %if.then3
  %4 = load i32, ptr %length.addr, align 4
  %capacity = getelementptr inbounds %"class.icu_75::MaybeStackArray.0", ptr %this1, i32 0, i32 1
  %5 = load i32, ptr %capacity, align 8
  %cmp6 = icmp sgt i32 %4, %5
  br i1 %cmp6, label %if.then7, label %if.end

if.then7:                                         ; preds = %if.then5
  %capacity8 = getelementptr inbounds %"class.icu_75::MaybeStackArray.0", ptr %this1, i32 0, i32 1
  %6 = load i32, ptr %capacity8, align 8
  store i32 %6, ptr %length.addr, align 4
  br label %if.end

if.end:                                           ; preds = %if.then7, %if.then5
  %7 = load i32, ptr %length.addr, align 4
  %8 = load i32, ptr %newCapacity.addr, align 4
  %cmp9 = icmp sgt i32 %7, %8
  br i1 %cmp9, label %if.then10, label %if.end11

if.then10:                                        ; preds = %if.end
  %9 = load i32, ptr %newCapacity.addr, align 4
  store i32 %9, ptr %length.addr, align 4
  br label %if.end11

if.end11:                                         ; preds = %if.then10, %if.end
  br label %do.body

do.body:                                          ; preds = %if.end11
  %10 = load ptr, ptr %p, align 8
  %ptr = getelementptr inbounds %"class.icu_75::MaybeStackArray.0", ptr %this1, i32 0, i32 0
  %11 = load ptr, ptr %ptr, align 8
  %12 = load i32, ptr %length.addr, align 4
  %conv12 = sext i32 %12 to i64
  %mul13 = mul i64 %conv12, 12
  call void @llvm.memcpy.p0.p0.i64(ptr align 4 %10, ptr align 4 %11, i64 %mul13, i1 false)
  br label %do.end

do.end:                                           ; preds = %do.body
  br label %if.end14

if.end14:                                         ; preds = %do.end, %if.then3
  call void @_ZN6icu_7515MaybeStackArrayINS_20StandardPluralRanges25StandardPluralRangeTripleELi3EE12releaseArrayEv(ptr noundef nonnull align 8 dereferenceable(52) %this1)
  %13 = load ptr, ptr %p, align 8
  %ptr15 = getelementptr inbounds %"class.icu_75::MaybeStackArray.0", ptr %this1, i32 0, i32 0
  store ptr %13, ptr %ptr15, align 8
  %14 = load i32, ptr %newCapacity.addr, align 4
  %capacity16 = getelementptr inbounds %"class.icu_75::MaybeStackArray.0", ptr %this1, i32 0, i32 1
  store i32 %14, ptr %capacity16, align 8
  %needToRelease = getelementptr inbounds %"class.icu_75::MaybeStackArray.0", ptr %this1, i32 0, i32 2
  store i8 1, ptr %needToRelease, align 4
  br label %if.end17

if.end17:                                         ; preds = %if.end14, %if.then
  %15 = load ptr, ptr %p, align 8
  store ptr %15, ptr %retval, align 8
  br label %return

if.else:                                          ; preds = %entry
  store ptr null, ptr %retval, align 8
  br label %return

return:                                           ; preds = %if.else, %if.end17
  %16 = load ptr, ptr %retval, align 8
  ret ptr %16
}

; Function Attrs: mustprogress nounwind uwtable
define linkonce_odr noundef i32 @_ZNK6icu_7515MaybeStackArrayINS_20StandardPluralRanges25StandardPluralRangeTripleELi3EE11getCapacityEv(ptr noundef nonnull align 8 dereferenceable(52) %this) #0 comdat align 2 {
entry:
  %this.addr = alloca ptr, align 8
  store ptr %this, ptr %this.addr, align 8
  %this1 = load ptr, ptr %this.addr, align 8
  %capacity = getelementptr inbounds %"class.icu_75::MaybeStackArray.0", ptr %this1, i32 0, i32 1
  %0 = load i32, ptr %capacity, align 8
  ret i32 %0
}

; Function Attrs: mustprogress nounwind uwtable
define internal noundef signext i8 @_ZL9U_FAILURE10UErrorCode(i32 noundef %code) #0 {
entry:
  %code.addr = alloca i32, align 4
  store i32 %code, ptr %code.addr, align 4
  %0 = load i32, ptr %code.addr, align 4
  %cmp = icmp sgt i32 %0, 0
  %conv = zext i1 %cmp to i8
  ret i8 %conv
}

; Function Attrs: mustprogress uwtable
define void @_ZN6icu_7520StandardPluralRanges11setCapacityEiR10UErrorCode(ptr noundef nonnull align 8 dereferenceable(60) %this, i32 noundef %length, ptr noundef nonnull align 4 dereferenceable(4) %status) #1 align 2 {
entry:
  %this.addr = alloca ptr, align 8
  %length.addr = alloca i32, align 4
  %status.addr = alloca ptr, align 8
  store ptr %this, ptr %this.addr, align 8
  store i32 %length, ptr %length.addr, align 4
  store ptr %status, ptr %status.addr, align 8
  %this1 = load ptr, ptr %this.addr, align 8
  %0 = load ptr, ptr %status.addr, align 8
  %1 = load i32, ptr %0, align 4
  %call = call noundef signext i8 @_ZL9U_FAILURE10UErrorCode(i32 noundef %1)
  %tobool = icmp ne i8 %call, 0
  br i1 %tobool, label %if.then, label %if.end

if.then:                                          ; preds = %entry
  br label %if.end9

if.end:                                           ; preds = %entry
  %2 = load i32, ptr %length.addr, align 4
  %fTriples = getelementptr inbounds %"class.icu_75::StandardPluralRanges", ptr %this1, i32 0, i32 0
  %call2 = call noundef i32 @_ZNK6icu_7515MaybeStackArrayINS_20StandardPluralRanges25StandardPluralRangeTripleELi3EE11getCapacityEv(ptr noundef nonnull align 8 dereferenceable(52) %fTriples)
  %cmp = icmp sgt i32 %2, %call2
  br i1 %cmp, label %if.then3, label %if.end9

if.then3:                                         ; preds = %if.end
  %fTriples4 = getelementptr inbounds %"class.icu_75::StandardPluralRanges", ptr %this1, i32 0, i32 0
  %3 = load i32, ptr %length.addr, align 4
  %call5 = call noundef ptr @_ZN6icu_7515MaybeStackArrayINS_20StandardPluralRanges25StandardPluralRangeTripleELi3EE6resizeEii(ptr noundef nonnull align 8 dereferenceable(52) %fTriples4, i32 noundef %3, i32 noundef 0)
  %cmp6 = icmp eq ptr %call5, null
  br i1 %cmp6, label %if.then7, label %if.end8

if.then7:                                         ; preds = %if.then3
  %4 = load ptr, ptr %status.addr, align 8
  store i32 7, ptr %4, align 4
  br label %if.end8

if.end8:                                          ; preds = %if.then7, %if.then3
  br label %if.end9

if.end9:                                          ; preds = %if.end8, %if.end, %if.then
  ret void
}