; Function Attrs: mustprogress uwtable
define void @_ZN6icu_7520StandardPluralRanges11setCapacityEiR10UErrorCode(ptr nocapture noundef nonnull align 8 dereferenceable(60) %this, i32 noundef %length, ptr nocapture noundef nonnull align 4 dereferenceable(4) %status) local_unnamed_addr #1 align 2 {
entry:
  %0 = load i32, ptr %status, align 4
  %cmp.i = icmp slt i32 %0, 1
  br i1 %cmp.i, label %if.end, label %if.end9

if.end:                                           ; preds = %entry
  %capacity.i = getelementptr inbounds i8, ptr %this, i64 8
  %1 = load i32, ptr %capacity.i, align 8
  %cmp = icmp slt i32 %1, %length
  br i1 %cmp, label %if.then3, label %if.end9

if.then3:                                         ; preds = %if.end
  %cmp.i3 = icmp sgt i32 %length, 0
  br i1 %cmp.i3, label %if.then.i, label %if.then7

if.then.i:                                        ; preds = %if.then3
  %conv.i4 = zext nneg i32 %length to i64
  %mul.i = mul nuw nsw i64 %conv.i4, 12
  %call.i = tail call noalias ptr @uprv_malloc_75(i64 noundef %mul.i) #12
  %cmp2.not.i = icmp eq ptr %call.i, null
  br i1 %cmp2.not.i, label %if.then7, label %if.then3.i

if.then3.i:                                       ; preds = %if.then.i
  %needToRelease.i.i = getelementptr inbounds i8, ptr %this, i64 12
  %2 = load i8, ptr %needToRelease.i.i, align 4
  %tobool.not.i.i = icmp eq i8 %2, 0
  br i1 %tobool.not.i.i, label %_ZN6icu_7515MaybeStackArrayINS_20StandardPluralRanges25StandardPluralRangeTripleELi3EE6resizeEii.exit, label %if.then.i.i

if.then.i.i:                                      ; preds = %if.then3.i
  %3 = load ptr, ptr %this, align 8
  tail call void @uprv_free_75(ptr noundef %3)
  br label %_ZN6icu_7515MaybeStackArrayINS_20StandardPluralRanges25StandardPluralRangeTripleELi3EE6resizeEii.exit

_ZN6icu_7515MaybeStackArrayINS_20StandardPluralRanges25StandardPluralRangeTripleELi3EE6resizeEii.exit: ; preds = %if.then3.i, %if.then.i.i
  store ptr %call.i, ptr %this, align 8
  store i32 %length, ptr %capacity.i, align 8
  store i8 1, ptr %needToRelease.i.i, align 4
  br label %if.end9

if.then7:                                         ; preds = %if.then.i, %if.then3
  store i32 7, ptr %status, align 4
  br label %if.end9

if.end9:                                          ; preds = %_ZN6icu_7515MaybeStackArrayINS_20StandardPluralRanges25StandardPluralRangeTripleELi3EE6resizeEii.exit, %if.then7, %entry, %if.end
  ret void
}